target datalayout = "e-m:e-p270:32:32-p271:32:32-p272:64:64-i64:64-i128:128-f80:128-n8:16:32:64-S128"
target triple = "x86_64-pc-linux-gnu"

%struct.AVFormatContext = type { ptr, ptr, ptr, ptr, ptr, i32, i32, ptr, i32, ptr, i32, ptr, ptr, i64, i64, i64, i32, i32, i32, i64, i64, ptr, i32, i32, ptr, i32, i32, i32, i32, ptr, i64, i32, i32, %struct.AVIOInterruptCB, i32, i32, i32, i32, i64, i32, i32, i32, i32, i32, i32, i32, i32, i32, i32, i32, i32, i64, i32, i32, i32, i32, i32, ptr, ptr, ptr, ptr, i32, ptr, ptr, ptr, ptr, i32, ptr, ptr, i64, ptr, ptr, ptr, i64 }
%struct.AVIOInterruptCB = type { ptr, ptr }
%struct.FFOutputFormat = type { %struct.AVOutputFormat, i32, i32, ptr, ptr, ptr, ptr, ptr, ptr, ptr, ptr, ptr, ptr, ptr, ptr }
%struct.AVOutputFormat = type { ptr, ptr, ptr, ptr, i32, i32, i32, i32, ptr, ptr }

@.str.5 = private unnamed_addr constant [30 x i8] c"Assertion %s failed at %s:%d\0A\00", align 1
@.str.7 = private unnamed_addr constant [18 x i8] c"libavformat/mux.c\00", align 1
@.str.13 = private unnamed_addr constant [3 x i8] c"of\00", align 1

; Function Attrs: inlinehint nounwind uwtable
define internal ptr @ffofmt(ptr noundef %0) #3 {
  %2 = alloca ptr, align 8
  store ptr %0, ptr %2, align 8, !tbaa !10
  %3 = load ptr, ptr %2, align 8, !tbaa !10
  ret ptr %3
}

; Function Attrs: nounwind uwtable
define i32 @av_write_uncoded_frame_query(ptr noundef %0, i32 noundef %1) #0 {
  %3 = alloca i32, align 4
  %4 = alloca ptr, align 8
  %5 = alloca i32, align 4
  %6 = alloca ptr, align 8
  %7 = alloca i32, align 4
  store ptr %0, ptr %4, align 8, !tbaa !14
  store i32 %1, ptr %5, align 4, !tbaa !16
  call void @llvm.lifetime.start.p0(i64 8, ptr %6) #11
  %8 = load ptr, ptr %4, align 8, !tbaa !14
  %9 = getelementptr inbounds nuw %struct.AVFormatContext, ptr %8, i32 0, i32 2
  %10 = load ptr, ptr %9, align 8, !tbaa !18
  %11 = call ptr @ffofmt(ptr noundef %10)
  store ptr %11, ptr %6, align 8, !tbaa !46
  br label %12

12:                                               ; preds = %2
  %13 = load ptr, ptr %6, align 8, !tbaa !46
  %14 = icmp ne ptr %13, null
  br i1 %14, label %16, label %15

15:                                               ; preds = %12
  call void (ptr, i32, ptr, ...) @av_log(ptr noundef null, i32 noundef 0, ptr noundef @.str.5, ptr noundef @.str.13, ptr noundef @.str.7, i32 noundef 1431)
  call void @abort() #13
  unreachable

16:                                               ; preds = %12
  br label %17

17:                                               ; preds = %16
  br label %18

18:                                               ; preds = %17
  %19 = load ptr, ptr %6, align 8, !tbaa !46
  %20 = getelementptr inbounds nuw %struct.FFOutputFormat, ptr %19, i32 0, i32 10
  %21 = load ptr, ptr %20, align 8, !tbaa !189
  %22 = icmp ne ptr %21, null
  br i1 %22, label %24, label %23

23:                                               ; preds = %18
  store i32 -38, ptr %3, align 4
  store i32 1, ptr %7, align 4
  br label %31

24:                                               ; preds = %18
  %25 = load ptr, ptr %6, align 8, !tbaa !46
  %26 = getelementptr inbounds nuw %struct.FFOutputFormat, ptr %25, i32 0, i32 10
  %27 = load ptr, ptr %26, align 8, !tbaa !189
  %28 = load ptr, ptr %4, align 8, !tbaa !14
  %29 = load i32, ptr %5, align 4, !tbaa !16
  %30 = call i32 %27(ptr noundef %28, i32 noundef %29, ptr noundef null, i32 noundef 1)
  store i32 %30, ptr %3, align 4
  store i32 1, ptr %7, align 4
  br label %31

31:                                               ; preds = %24, %23
  call void @llvm.lifetime.end.p0(i64 8, ptr %6) #11
  %32 = load i32, ptr %3, align 4
  ret i32 %32
}