; Function Attrs: nounwind uwtable
define i32 @av_write_uncoded_frame_query(ptr noundef %0, i32 noundef %1) local_unnamed_addr #0 {
  %3 = getelementptr inbounds nuw i8, ptr %0, i64 16
  %4 = load ptr, ptr %3, align 8, !tbaa !9
  %.not = icmp eq ptr %4, null
  br i1 %.not, label %5, label %6

5:                                                ; preds = %2
  tail call void (ptr, i32, ptr, ...) @av_log(ptr noundef null, i32 noundef 0, ptr noundef nonnull @.str.5, ptr noundef nonnull @.str.13, ptr noundef nonnull @.str.7, i32 noundef 1431) #13
  tail call void @abort() #15
  unreachable

6:                                                ; preds = %2
  %7 = getelementptr inbounds nuw i8, ptr %4, i64 128
  %8 = load ptr, ptr %7, align 8, !tbaa !169
  %.not8 = icmp eq ptr %8, null
  br i1 %.not8, label %11, label %9

9:                                                ; preds = %6
  %10 = tail call i32 %8(ptr noundef nonnull %0, i32 noundef %1, ptr noundef null, i32 noundef 1) #13
  br label %11

11:                                               ; preds = %6, %9
  %.0 = phi i32 [ %10, %9 ], [ -38, %6 ]
  ret i32 %.0
}